target datalayout = "e-m:e-p270:32:32-p271:32:32-p272:64:64-i64:64-i128:128-f80:128-n8:16:32:64-S128"
target triple = "x86_64-pc-linux-gnu"

%struct.mat = type { [4 x %struct.vec] }
%struct.vec = type { double, double, double, double }

@Projection = dso_local global %struct.mat zeroinitializer, align 8

; Function Attrs: mustprogress nounwind uwtable
define dso_local void @_Z10projectiond(double noundef %0) #4 {
  %2 = alloca double, align 8
  %3 = alloca %struct.mat, align 8
  store double %0, ptr %2, align 8, !tbaa !17
  call void @llvm.lifetime.start.p0(i64 128, ptr %3) #3
  call void @llvm.memset.p0.i64(ptr align 8 %3, i8 0, i64 128, i1 false)
  %4 = getelementptr inbounds nuw %struct.mat, ptr %3, i32 0, i32 0
  %5 = getelementptr inbounds nuw %struct.vec, ptr %4, i32 0, i32 0
  store double 1.000000e+00, ptr %5, align 8, !tbaa !9
  %6 = getelementptr inbounds %struct.vec, ptr %4, i64 1
  %7 = getelementptr inbounds nuw %struct.vec, ptr %6, i32 0, i32 1
  store double -1.000000e+00, ptr %7, align 8, !tbaa !12
  %8 = getelementptr inbounds %struct.vec, ptr %4, i64 2
  %9 = getelementptr inbounds nuw %struct.vec, ptr %8, i32 0, i32 2
  store double 1.000000e+00, ptr %9, align 8, !tbaa !13
  %10 = getelementptr inbounds %struct.vec, ptr %4, i64 3
  %11 = getelementptr inbounds nuw %struct.vec, ptr %10, i32 0, i32 2
  %12 = load double, ptr %2, align 8, !tbaa !17
  %13 = fdiv double -1.000000e+00, %12
  store double %13, ptr %11, align 8, !tbaa !13
  call void @llvm.memcpy.p0.p0.i64(ptr align 8 @Projection, ptr align 8 %3, i64 128, i1 false), !tbaa.struct !15
  call void @llvm.lifetime.end.p0(i64 128, ptr %3) #3
  ret void
}