; Function Attrs: mustprogress nofree norecurse nosync nounwind willreturn memory(write, argmem: none, inaccessiblemem: none) uwtable
define dso_local void @_Z10projectiond(double noundef %0) local_unnamed_addr #3 {
  %2 = fdiv double -1.000000e+00, %0
  store double 1.000000e+00, ptr @Projection, align 8
  tail call void @llvm.memset.p0.i64(ptr noundef nonnull align 8 dereferenceable(32) getelementptr inbounds nuw (i8, ptr @Projection, i64 8), i8 0, i64 32, i1 false)
  store double -1.000000e+00, ptr getelementptr inbounds nuw (i8, ptr @Projection, i64 40), align 8
  tail call void @llvm.memset.p0.i64(ptr noundef nonnull align 8 dereferenceable(32) getelementptr inbounds nuw (i8, ptr @Projection, i64 48), i8 0, i64 32, i1 false)
  store double 1.000000e+00, ptr getelementptr inbounds nuw (i8, ptr @Projection, i64 80), align 8
  tail call void @llvm.memset.p0.i64(ptr noundef nonnull align 8 dereferenceable(24) getelementptr inbounds nuw (i8, ptr @Projection, i64 88), i8 0, i64 24, i1 false)
  store double %2, ptr getelementptr inbounds nuw (i8, ptr @Projection, i64 112), align 8
  store double 0.000000e+00, ptr getelementptr inbounds nuw (i8, ptr @Projection, i64 120), align 8, !tbaa !5
  ret void
}